target datalayout = "e-m:e-p270:32:32-p271:32:32-p272:64:64-i64:64-i128:128-f80:128-n8:16:32:64-S128"
target triple = "x86_64-pc-linux-gnu"

; Function Attrs: mustprogress nounwind uwtable
define linkonce_odr hidden void @_ZN10WriterHostI11EncoderHostI20BigEndianEncoderImplS1_ES0_I20Varint128EncoderImplS1_E30AcquireReleaseMemoryWriterHostI7AdapterI18JfrCheckpointFlushE8StackObjEE5writeEPKc(ptr noundef nonnull align 8 dereferenceable(41) %0, ptr noundef %1) #1 comdat align 2 {
  %3 = alloca ptr, align 8
  %4 = alloca ptr, align 8
  store ptr %0, ptr %3, align 8
  store ptr %1, ptr %4, align 8
  %5 = load ptr, ptr %3, align 8
  %6 = load ptr, ptr %4, align 8
  call void @_ZN10WriterHostI11EncoderHostI20BigEndianEncoderImplS1_ES0_I20Varint128EncoderImplS1_E30AcquireReleaseMemoryWriterHostI7AdapterI18JfrCheckpointFlushE8StackObjEE10write_utf8EPKc(ptr noundef nonnull align 8 dereferenceable(41) %5, ptr noundef %6)
  ret void
}

; Function Attrs: mustprogress nounwind uwtable
define hidden void @_ZN21NarrowOopModeConstant9serializeER19JfrCheckpointWriter(ptr noundef nonnull align 8 dereferenceable(8) %0, ptr noundef nonnull align 8 dereferenceable(73) %1) unnamed_addr #1 align 2 {
  %3 = alloca ptr, align 8
  %4 = alloca ptr, align 8
  %5 = alloca i32, align 4
  store ptr %0, ptr %3, align 8
  store ptr %1, ptr %4, align 8
  %6 = load ptr, ptr %4, align 8
  call void @_ZN19JfrCheckpointWriter11write_countEj(ptr noundef nonnull align 8 dereferenceable(73) %6, i32 noundef 4)
  store i32 0, ptr %5, align 4
  br label %7

7:                                                ; preds = %17, %2
  %8 = load i32, ptr %5, align 4
  %9 = icmp ult i32 %8, 4
  br i1 %9, label %10, label %20

10:                                               ; preds = %7
  %11 = load ptr, ptr %4, align 8
  %12 = load i32, ptr %5, align 4
  %13 = zext i32 %12 to i64
  call void @_ZN19JfrCheckpointWriter9write_keyEm(ptr noundef nonnull align 8 dereferenceable(73) %11, i64 noundef %13)
  %14 = load ptr, ptr %4, align 8
  %15 = load i32, ptr %5, align 4
  %16 = call noundef ptr @_ZN14CompressedOops14mode_to_stringENS_4ModeE(i32 noundef %15)
  call void @_ZN10WriterHostI11EncoderHostI20BigEndianEncoderImplS1_ES0_I20Varint128EncoderImplS1_E30AcquireReleaseMemoryWriterHostI7AdapterI18JfrCheckpointFlushE8StackObjEE5writeEPKc(ptr noundef nonnull align 8 dereferenceable(41) %14, ptr noundef %16)
  br label %17

17:                                               ; preds = %10
  %18 = load i32, ptr %5, align 4
  %19 = add i32 %18, 1
  store i32 %19, ptr %5, align 4
  br label %7, !llvm.loop !17

20:                                               ; preds = %7
  ret void
}